; Function Attrs: mustprogress nofree norecurse nosync nounwind willreturn memory(argmem: read) uwtable
define internal range(i32 -1, 2) i32 @buffer_cmp(ptr noundef readonly captures(none) %0, ptr noundef readonly captures(none) %1) #3 {
  %3 = getelementptr inbounds nuw i8, ptr %0, i64 8
  %4 = load i32, ptr %3, align 8
  %5 = getelementptr inbounds nuw i8, ptr %1, i64 8
  %6 = load i32, ptr %5, align 8
  %7 = icmp ugt i32 %4, %6
  %. = select i1 %7, i32 1, i32 -1
  ret i32 %.
}